; Function Attrs: mustprogress uwtable
define hidden void @_ZNK4cvc56parser9Smt2State5mkAndERKSt6vectorINS_4TermESaIS3_EE(ptr noalias sret(%"class.cvc5::Term") align 8 %agg.result, ptr nocapture noundef nonnull readonly align 8 dereferenceable(512) %this, ptr noundef nonnull align 8 dereferenceable(24) %es) local_unnamed_addr #3 align 2 personality ptr @__gxx_personality_v0 {
entry:
  %_M_finish.i = getelementptr inbounds i8, ptr %es, i64 8
  %0 = load ptr, ptr %_M_finish.i, align 8
  %1 = load ptr, ptr %es, align 8
  %sub.ptr.lhs.cast.i = ptrtoint ptr %0 to i64
  %sub.ptr.rhs.cast.i = ptrtoint ptr %1 to i64
  %sub.ptr.sub.i = sub i64 %sub.ptr.lhs.cast.i, %sub.ptr.rhs.cast.i
  %sub.ptr.div.i = sdiv exact i64 %sub.ptr.sub.i, 24
  switch i64 %sub.ptr.div.i, label %if.end6 [
    i64 0, label %if.then
    i64 1, label %if.then4
  ]

if.then:                                          ; preds = %entry
  %d_solver = getelementptr inbounds i8, ptr %this, i64 8
  %2 = load ptr, ptr %d_solver, align 8
  tail call void @_ZNK4cvc56Solver6mkTrueEv(ptr sret(%"class.cvc5::Term") align 8 %agg.result, ptr noundef nonnull align 8 dereferenceable(40) %2)
  br label %return

if.then4:                                         ; preds = %entry
  %3 = load ptr, ptr %1, align 8
  store ptr %3, ptr %agg.result, align 8
  %d_node.i = getelementptr inbounds i8, ptr %agg.result, i64 8
  %d_node3.i = getelementptr inbounds i8, ptr %1, i64 8
  %4 = load ptr, ptr %d_node3.i, align 8
  store ptr %4, ptr %d_node.i, align 8
  %_M_refcount.i.i.i = getelementptr inbounds i8, ptr %agg.result, i64 16
  %_M_refcount3.i.i.i = getelementptr inbounds i8, ptr %1, i64 16
  %5 = load ptr, ptr %_M_refcount3.i.i.i, align 8
  store ptr %5, ptr %_M_refcount.i.i.i, align 8
  %cmp.not.i.i.i.i = icmp eq ptr %5, null
  br i1 %cmp.not.i.i.i.i, label %return, label %if.then.i.i.i.i

if.then.i.i.i.i:                                  ; preds = %if.then4
  %_M_use_count.i.i.i.i.i = getelementptr inbounds i8, ptr %5, i64 8
  %6 = load i8, ptr @__libc_single_threaded, align 1
  %tobool.i.not.i.i.i.i.i = icmp eq i8 %6, 0
  br i1 %tobool.i.not.i.i.i.i.i, label %if.else.i.i.i.i.i.i, label %if.then.i.i.i.i.i.i

if.then.i.i.i.i.i.i:                              ; preds = %if.then.i.i.i.i
  %7 = load i32, ptr %_M_use_count.i.i.i.i.i, align 4
  %add.i.i.i.i.i.i = add nsw i32 %7, 1
  store i32 %add.i.i.i.i.i.i, ptr %_M_use_count.i.i.i.i.i, align 4
  br label %return

if.else.i.i.i.i.i.i:                              ; preds = %if.then.i.i.i.i
  %8 = atomicrmw volatile add ptr %_M_use_count.i.i.i.i.i, i32 1 acq_rel, align 4
  br label %return

if.end6:                                          ; preds = %entry
  %d_solver7 = getelementptr inbounds i8, ptr %this, i64 8
  %9 = load ptr, ptr %d_solver7, align 8
  tail call void @_ZNK4cvc56Solver6mkTermENS_4KindERKSt6vectorINS_4TermESaIS3_EE(ptr sret(%"class.cvc5::Term") align 8 %agg.result, ptr noundef nonnull align 8 dereferenceable(40) %9, i32 noundef 11, ptr noundef nonnull align 8 dereferenceable(24) %es)
  br label %return

return:                                           ; preds = %if.else.i.i.i.i.i.i, %if.then.i.i.i.i.i.i, %if.then4, %if.end6, %if.then
  ret void
}